target datalayout = "e-m:e-p270:32:32-p271:32:32-p272:64:64-i64:64-i128:128-f80:128-n8:16:32:64-S128"
target triple = "x86_64-pc-linux-gnu"

%struct.DataCacheElement = type { ptr, ptr }

; Function Attrs: mustprogress uwtable
define internal void @_ZL24DataCacheElement_deleterPv(ptr noundef %0) #1 {
  %2 = alloca ptr, align 8
  %3 = alloca ptr, align 8
  store ptr %0, ptr %2, align 8, !tbaa !22
  call void @llvm.lifetime.start.p0(i64 8, ptr %3) #12
  %4 = load ptr, ptr %2, align 8, !tbaa !22
  store ptr %4, ptr %3, align 8, !tbaa !48
  %5 = load ptr, ptr %3, align 8, !tbaa !48
  %6 = getelementptr inbounds nuw %struct.DataCacheElement, ptr %5, i32 0, i32 1
  %7 = load ptr, ptr %6, align 8, !tbaa !52
  call void @udata_close_77(ptr noundef %7)
  %8 = load ptr, ptr %3, align 8, !tbaa !48
  %9 = getelementptr inbounds nuw %struct.DataCacheElement, ptr %8, i32 0, i32 0
  %10 = load ptr, ptr %9, align 8, !tbaa !54
  call void @uprv_free_77(ptr noundef %10)
  %11 = load ptr, ptr %2, align 8, !tbaa !22
  call void @uprv_free_77(ptr noundef %11)
  call void @llvm.lifetime.end.p0(i64 8, ptr %3) #12
  ret void
}