; Function Attrs: mustprogress uwtable
define internal void @_ZL24DataCacheElement_deleterPv(ptr noundef %0) #1 {
  %2 = getelementptr inbounds nuw i8, ptr %0, i64 8
  %3 = load ptr, ptr %2, align 8, !tbaa !35
  tail call void @udata_close_77(ptr noundef %3)
  %4 = load ptr, ptr %0, align 8, !tbaa !37
  tail call void @uprv_free_77(ptr noundef %4)
  tail call void @uprv_free_77(ptr noundef nonnull %0)
  ret void
}